; Function Attrs: nounwind sspstrong uwtable
define internal i64 @do_ioctl_usbdevfs_discardurb(ptr noundef readonly captures(none) %ie, ptr readnone captures(none) %buf_temp, i32 noundef %fd, i32 %cmd, i64 noundef %arg) #2 {
entry:
  %target_urb_adr.addr.i = alloca i64, align 8
  call void @llvm.lifetime.start.p0(i64 8, ptr nonnull %target_urb_adr.addr.i)
  store i64 %arg, ptr %target_urb_adr.addr.i, align 8
  %0 = load ptr, ptr @usbdevfs_urb_hashtable.urb_hashtable, align 8
  %tobool.not.i.i = icmp eq ptr %0, null
  br i1 %tobool.not.i.i, label %if.then.i.i, label %urb_hashtable_lookup.exit

if.then.i.i:                                      ; preds = %entry
  %call.i.i = tail call ptr @g_hash_table_new(ptr noundef nonnull @g_int64_hash, ptr noundef nonnull @g_int64_equal) #27
  store ptr %call.i.i, ptr @usbdevfs_urb_hashtable.urb_hashtable, align 8
  br label %urb_hashtable_lookup.exit

urb_hashtable_lookup.exit:                        ; preds = %entry, %if.then.i.i
  %1 = phi ptr [ %call.i.i, %if.then.i.i ], [ %0, %entry ]
  %call1.i = call ptr @g_hash_table_lookup(ptr noundef %1, ptr noundef nonnull %target_urb_adr.addr.i) #27
  call void @llvm.lifetime.end.p0(i64 8, ptr nonnull %target_urb_adr.addr.i)
  %tobool.not = icmp eq ptr %call1.i, null
  br i1 %tobool.not, label %return, label %if.end

if.end:                                           ; preds = %urb_hashtable_lookup.exit
  %2 = call align 8 ptr @llvm.threadlocal.address.p0(ptr align 8 @thread_cpu)
  %3 = load ptr, ptr %2, align 8
  %opaque = getelementptr inbounds nuw i8, ptr %3, i64 624
  %4 = load ptr, ptr %opaque, align 16
  %signal_pending = getelementptr inbounds nuw i8, ptr %4, i64 9164
  %host_cmd = getelementptr inbounds nuw i8, ptr %ie, i64 4
  %5 = load i32, ptr %host_cmd, align 4
  %host_urb = getelementptr inbounds nuw i8, ptr %call1.i, i64 24
  %call1 = call i64 (ptr, i64, ...) @safe_syscall_base(ptr noundef nonnull %signal_pending, i64 noundef 16, i32 noundef %fd, i32 noundef %5, ptr noundef nonnull %host_urb) #27
  %cmp.i = icmp eq i64 %call1, -1
  br i1 %cmp.i, label %if.then.i, label %return

if.then.i:                                        ; preds = %if.end
  %call.i = tail call ptr @__errno_location() #26
  %6 = load i32, ptr %call.i, align 4
  %sub.i = sub i32 0, %6
  %conv.i = sext i32 %sub.i to i64
  br label %return

return:                                           ; preds = %if.then.i, %if.end, %urb_hashtable_lookup.exit
  %retval.0 = phi i64 [ -14, %urb_hashtable_lookup.exit ], [ %conv.i, %if.then.i ], [ %call1, %if.end ]
  ret i64 %retval.0
}